; Function Attrs: mustprogress uwtable
define hidden void @_ZN3Jvm15setEnvVariablesEv(ptr nocapture noundef nonnull readonly align 8 dereferenceable(104) %0) local_unnamed_addr #3 align 2 {
  %2 = getelementptr inbounds i8, ptr %0, i64 56
  %3 = getelementptr inbounds i8, ptr %0, i64 64
  %4 = load ptr, ptr %3, align 8
  %5 = load ptr, ptr %2, align 8
  %.not11 = icmp eq ptr %4, %5
  br i1 %.not11, label %._crit_edge, label %.lr.ph

.lr.ph:                                           ; preds = %1
  %6 = ptrtoint ptr %5 to i64
  %7 = ptrtoint ptr %4 to i64
  %8 = sub i64 %7, %6
  %9 = ashr exact i64 %8, 5
  %10 = getelementptr inbounds i8, ptr %0, i64 80
  %11 = getelementptr inbounds i8, ptr %0, i64 88
  br label %12

12:                                               ; preds = %.lr.ph, %_ZNSt6vectorINSt7__cxx1112basic_stringIcSt11char_traitsIcESaIcEEESaIS5_EE2atEm.exit5
  %13 = phi i64 [ %9, %.lr.ph ], [ %31, %_ZNSt6vectorINSt7__cxx1112basic_stringIcSt11char_traitsIcESaIcEEESaIS5_EE2atEm.exit5 ]
  %14 = phi ptr [ %5, %.lr.ph ], [ %27, %_ZNSt6vectorINSt7__cxx1112basic_stringIcSt11char_traitsIcESaIcEEESaIS5_EE2atEm.exit5 ]
  %.012 = phi i64 [ 0, %.lr.ph ], [ %25, %_ZNSt6vectorINSt7__cxx1112basic_stringIcSt11char_traitsIcESaIcEEESaIS5_EE2atEm.exit5 ]
  %.not.i.i = icmp ugt i64 %13, %.012
  br i1 %.not.i.i, label %_ZNSt6vectorINSt7__cxx1112basic_stringIcSt11char_traitsIcESaIcEEESaIS5_EE2atEm.exit, label %15

15:                                               ; preds = %12
  tail call void (ptr, ...) @_ZSt24__throw_out_of_range_fmtPKcz(ptr noundef nonnull @.str.25, i64 noundef %.012, i64 noundef %13) #22
  unreachable

_ZNSt6vectorINSt7__cxx1112basic_stringIcSt11char_traitsIcESaIcEEESaIS5_EE2atEm.exit: ; preds = %12
  %16 = load ptr, ptr %11, align 8
  %17 = load ptr, ptr %10, align 8
  %18 = ptrtoint ptr %16 to i64
  %19 = ptrtoint ptr %17 to i64
  %20 = sub i64 %18, %19
  %21 = ashr exact i64 %20, 5
  %.not.i.i4 = icmp ugt i64 %21, %.012
  br i1 %.not.i.i4, label %_ZNSt6vectorINSt7__cxx1112basic_stringIcSt11char_traitsIcESaIcEEESaIS5_EE2atEm.exit5, label %22

22:                                               ; preds = %_ZNSt6vectorINSt7__cxx1112basic_stringIcSt11char_traitsIcESaIcEEESaIS5_EE2atEm.exit
  tail call void (ptr, ...) @_ZSt24__throw_out_of_range_fmtPKcz(ptr noundef nonnull @.str.25, i64 noundef %.012, i64 noundef %21) #22
  unreachable

_ZNSt6vectorINSt7__cxx1112basic_stringIcSt11char_traitsIcESaIcEEESaIS5_EE2atEm.exit5: ; preds = %_ZNSt6vectorINSt7__cxx1112basic_stringIcSt11char_traitsIcESaIcEEESaIS5_EE2atEm.exit
  %23 = getelementptr inbounds %"class.std::__cxx11::basic_string", ptr %14, i64 %.012
  %24 = getelementptr inbounds %"class.std::__cxx11::basic_string", ptr %17, i64 %.012
  tail call void @_ZN7SysInfo14setEnvVariableERKNSt7__cxx1112basic_stringIcSt11char_traitsIcESaIcEEES7_(ptr noundef nonnull align 8 dereferenceable(32) %23, ptr noundef nonnull align 8 dereferenceable(32) %24)
  %25 = add nuw i64 %.012, 1
  %26 = load ptr, ptr %3, align 8
  %27 = load ptr, ptr %2, align 8
  %28 = ptrtoint ptr %26 to i64
  %29 = ptrtoint ptr %27 to i64
  %30 = sub i64 %28, %29
  %31 = ashr exact i64 %30, 5
  %.not = icmp eq i64 %25, %31
  br i1 %.not, label %._crit_edge, label %12, !llvm.loop !16

._crit_edge:                                      ; preds = %_ZNSt6vectorINSt7__cxx1112basic_stringIcSt11char_traitsIcESaIcEEESaIS5_EE2atEm.exit5, %1
  ret void
}